target datalayout = "e-m:e-p270:32:32-p271:32:32-p272:64:64-i64:64-i128:128-f80:128-n8:16:32:64-S128"
target triple = "x86_64-pc-linux-gnu"

%struct.H5F_t = type { ptr, ptr, ptr, ptr, i32, ptr, i8, i8, ptr, i32 }
%struct.H5F_shared_t = type { ptr, ptr, ptr, i8, i32, i32, %struct.H5F_mtab_t, ptr, i8, i8, i64, i32, i32, i64, i64, ptr, ptr, %struct.H5AC_cache_config_t, %struct.H5AC_cache_image_config_t, i8, i8, ptr, i64, i32, i8, i64, i64, double, i64, i64, i64, i32, i32, i32, i8, i32, ptr, ptr, ptr, ptr, i8, i8, i8, i64, i64, ptr, ptr, i32, i64, i8, i32, i8, i64, i8, [13 x i32], [13 x i64], [13 x ptr], i8, i64, i64, [7 x i32], [7 x i32], %struct.H5F_blk_aggr_t, %struct.H5F_blk_aggr_t, i64, i64, %struct.H5F_meta_accum_t, i32, i32, [30 x ptr], %struct.H5F_object_flush_t, i8, ptr }
%struct.H5F_mtab_t = type { i32, i32, ptr }
%struct.H5AC_cache_config_t = type { i32, i8, i8, i8, [1025 x i8], i8, i8, i64, double, i64, i64, i64, i32, double, double, i8, i64, i32, double, double, i32, double, double, i8, i64, i32, i8, double, i64, i32 }
%struct.H5AC_cache_image_config_t = type { i32, i8, i8, i32 }
%struct.H5F_blk_aggr_t = type { i64, i64, i64, i64, i64 }
%struct.H5F_meta_accum_t = type { ptr, i64, i64, i64, i64, i64, i8 }
%struct.H5F_object_flush_t = type { ptr, ptr }
%struct.H5MF_free_section_t = type { %struct.H5FS_section_info_t }
%struct.H5FS_section_info_t = type { i64, i64, i32, i32 }

; Function Attrs: nounwind uwtable
define i32 @H5MF__aggr_can_absorb(ptr noundef %0, ptr noundef %1, ptr noundef %2, ptr noundef %3) #0 {
  %5 = alloca ptr, align 8
  %6 = alloca ptr, align 8
  %7 = alloca ptr, align 8
  %8 = alloca ptr, align 8
  %9 = alloca i32, align 4
  store ptr %0, ptr %5, align 8
  store ptr %1, ptr %6, align 8
  store ptr %2, ptr %7, align 8
  store ptr %3, ptr %8, align 8
  store i32 0, ptr %9, align 4
  %10 = load ptr, ptr %5, align 8
  %11 = getelementptr inbounds %struct.H5F_t, ptr %10, i32 0, i32 2
  %12 = load ptr, ptr %11, align 8
  %13 = getelementptr inbounds %struct.H5F_shared_t, ptr %12, i32 0, i32 13
  %14 = load i64, ptr %13, align 8
  %15 = load ptr, ptr %6, align 8
  %16 = getelementptr inbounds %struct.H5F_blk_aggr_t, ptr %15, i32 0, i32 0
  %17 = load i64, ptr %16, align 8
  %18 = and i64 %14, %17
  %19 = icmp ne i64 %18, 0
  br i1 %19, label %20, label %88

20:                                               ; preds = %4
  %21 = load ptr, ptr %7, align 8
  %22 = getelementptr inbounds %struct.H5MF_free_section_t, ptr %21, i32 0, i32 0
  %23 = getelementptr inbounds %struct.H5FS_section_info_t, ptr %22, i32 0, i32 0
  %24 = load i64, ptr %23, align 8
  %25 = load ptr, ptr %7, align 8
  %26 = getelementptr inbounds %struct.H5MF_free_section_t, ptr %25, i32 0, i32 0
  %27 = getelementptr inbounds %struct.H5FS_section_info_t, ptr %26, i32 0, i32 1
  %28 = load i64, ptr %27, align 8
  %29 = add i64 %24, %28
  %30 = icmp ne i64 %29, -1
  br i1 %30, label %31, label %45

31:                                               ; preds = %20
  %32 = load ptr, ptr %7, align 8
  %33 = getelementptr inbounds %struct.H5MF_free_section_t, ptr %32, i32 0, i32 0
  %34 = getelementptr inbounds %struct.H5FS_section_info_t, ptr %33, i32 0, i32 0
  %35 = load i64, ptr %34, align 8
  %36 = load ptr, ptr %7, align 8
  %37 = getelementptr inbounds %struct.H5MF_free_section_t, ptr %36, i32 0, i32 0
  %38 = getelementptr inbounds %struct.H5FS_section_info_t, ptr %37, i32 0, i32 1
  %39 = load i64, ptr %38, align 8
  %40 = add i64 %35, %39
  %41 = load ptr, ptr %6, align 8
  %42 = getelementptr inbounds %struct.H5F_blk_aggr_t, ptr %41, i32 0, i32 4
  %43 = load i64, ptr %42, align 8
  %44 = icmp eq i64 %40, %43
  br i1 %44, label %67, label %45

45:                                               ; preds = %31, %20
  %46 = load ptr, ptr %6, align 8
  %47 = getelementptr inbounds %struct.H5F_blk_aggr_t, ptr %46, i32 0, i32 4
  %48 = load i64, ptr %47, align 8
  %49 = load ptr, ptr %6, align 8
  %50 = getelementptr inbounds %struct.H5F_blk_aggr_t, ptr %49, i32 0, i32 3
  %51 = load i64, ptr %50, align 8
  %52 = add i64 %48, %51
  %53 = icmp ne i64 %52, -1
  br i1 %53, label %54, label %87

54:                                               ; preds = %45
  %55 = load ptr, ptr %6, align 8
  %56 = getelementptr inbounds %struct.H5F_blk_aggr_t, ptr %55, i32 0, i32 4
  %57 = load i64, ptr %56, align 8
  %58 = load ptr, ptr %6, align 8
  %59 = getelementptr inbounds %struct.H5F_blk_aggr_t, ptr %58, i32 0, i32 3
  %60 = load i64, ptr %59, align 8
  %61 = add i64 %57, %60
  %62 = load ptr, ptr %7, align 8
  %63 = getelementptr inbounds %struct.H5MF_free_section_t, ptr %62, i32 0, i32 0
  %64 = getelementptr inbounds %struct.H5FS_section_info_t, ptr %63, i32 0, i32 0
  %65 = load i64, ptr %64, align 8
  %66 = icmp eq i64 %61, %65
  br i1 %66, label %67, label %87

67:                                               ; preds = %54, %31
  %68 = load ptr, ptr %6, align 8
  %69 = getelementptr inbounds %struct.H5F_blk_aggr_t, ptr %68, i32 0, i32 3
  %70 = load i64, ptr %69, align 8
  %71 = load ptr, ptr %7, align 8
  %72 = getelementptr inbounds %struct.H5MF_free_section_t, ptr %71, i32 0, i32 0
  %73 = getelementptr inbounds %struct.H5FS_section_info_t, ptr %72, i32 0, i32 1
  %74 = load i64, ptr %73, align 8
  %75 = add i64 %70, %74
  %76 = load ptr, ptr %6, align 8
  %77 = getelementptr inbounds %struct.H5F_blk_aggr_t, ptr %76, i32 0, i32 1
  %78 = load i64, ptr %77, align 8
  %79 = icmp uge i64 %75, %78
  br i1 %79, label %80, label %82

80:                                               ; preds = %67
  %81 = load ptr, ptr %8, align 8
  store i32 2, ptr %81, align 4
  br label %84

82:                                               ; preds = %67
  %83 = load ptr, ptr %8, align 8
  store i32 1, ptr %83, align 4
  br label %84

84:                                               ; preds = %82, %80
  br label %85

85:                                               ; preds = %84
  store i32 1, ptr %9, align 4
  br label %89

86:                                               ; No predecessors!
  br label %87

87:                                               ; preds = %86, %54, %45
  br label %88

88:                                               ; preds = %87, %4
  br label %89

89:                                               ; preds = %88, %85
  %90 = load i32, ptr %9, align 4
  ret i32 %90
}