; Function Attrs: mustprogress nofree norecurse nosync nounwind willreturn memory(read, argmem: readwrite, inaccessiblemem: none) uwtable
define range(i32 0, 2) i32 @H5MF__aggr_can_absorb(ptr nocapture noundef readonly %0, ptr nocapture noundef readonly %1, ptr nocapture noundef readonly %2, ptr nocapture noundef writeonly %3) local_unnamed_addr #2 {
  %5 = getelementptr inbounds i8, ptr %0, i64 16
  %6 = load ptr, ptr %5, align 8
  %7 = getelementptr inbounds i8, ptr %6, i64 88
  %8 = load i64, ptr %7, align 8
  %9 = load i64, ptr %1, align 8
  %10 = and i64 %9, %8
  %.not = icmp eq i64 %10, 0
  br i1 %.not, label %22, label %11

11:                                               ; preds = %4
  %12 = load i64, ptr %2, align 8
  %13 = getelementptr inbounds i8, ptr %2, i64 8
  %14 = load i64, ptr %13, align 8
  %15 = add i64 %14, %12
  %.not19 = icmp ne i64 %15, -1
  %.phi.trans.insert = getelementptr inbounds i8, ptr %1, i64 32
  %.pre = load i64, ptr %.phi.trans.insert, align 8
  %16 = icmp eq i64 %15, %.pre
  %or.cond25 = select i1 %.not19, i1 %16, i1 false
  %.phi.trans.insert23 = getelementptr inbounds i8, ptr %1, i64 24
  %.pre24 = load i64, ptr %.phi.trans.insert23, align 8
  br i1 %or.cond25, label %._crit_edge22, label %._crit_edge

._crit_edge:                                      ; preds = %11
  %17 = add i64 %.pre24, %.pre
  %.not20 = icmp ne i64 %17, -1
  %18 = icmp eq i64 %17, %12
  %or.cond = and i1 %.not20, %18
  br i1 %or.cond, label %._crit_edge22, label %22

._crit_edge22:                                    ; preds = %11, %._crit_edge
  %19 = add i64 %.pre24, %14
  %20 = getelementptr inbounds i8, ptr %1, i64 8
  %21 = load i64, ptr %20, align 8
  %.not21 = icmp ult i64 %19, %21
  %. = select i1 %.not21, i32 1, i32 2
  store i32 %., ptr %3, align 4
  br label %22

22:                                               ; preds = %4, %._crit_edge, %._crit_edge22
  %.0 = phi i32 [ 1, %._crit_edge22 ], [ 0, %._crit_edge ], [ 0, %4 ]
  ret i32 %.0
}